; Function Attrs: nounwind uwtable
define range(i32 -1, 1) i32 @H5Pset_mdc_config(i64 noundef %0, ptr noundef %1) local_unnamed_addr #0 {
  %3 = alloca %struct.H5CX_node_t, align 8
  call void @llvm.lifetime.start.p0(i64 480, ptr nonnull %3) #15
  call void @llvm.memset.p0.i64(ptr noundef nonnull align 8 dereferenceable(480) %3, i8 0, i64 480, i1 false)
  %4 = load i8, ptr @H5_libinit_g, align 1, !tbaa !16, !range !18, !noundef !19
  %5 = trunc nuw i8 %4 to i1
  %6 = load i8, ptr @H5_libterm_g, align 1, !range !18
  %7 = trunc nuw i8 %6 to i1
  %8 = select i1 %5, i1 true, i1 %7
  br i1 %8, label %16, label %9, !prof !20

9:                                                ; preds = %2
  %10 = tail call i32 @H5_init_library() #15
  %11 = icmp slt i32 %10, 0
  br i1 %11, label %12, label %._crit_edge, !prof !28

._crit_edge:                                      ; preds = %9
  %.pre = load i8, ptr @H5_libterm_g, align 1, !range !18
  br label %16

12:                                               ; preds = %9
  %13 = load i64, ptr @H5E_FUNC_g, align 8, !tbaa !3
  %14 = load i64, ptr @H5E_CANTINIT_g, align 8, !tbaa !3
  %15 = tail call i32 (ptr, ptr, i32, i64, i64, ptr, ...) @H5E_printf_stack(ptr noundef nonnull @.str.2, ptr noundef nonnull @__func__.H5Pset_mdc_config, i32 noundef 2315, i64 noundef %13, i64 noundef %14, ptr noundef nonnull @.str.15) #15
  br label %.thread23

16:                                               ; preds = %._crit_edge, %2
  %17 = phi i8 [ %.pre, %._crit_edge ], [ %6, %2 ]
  %18 = load i8, ptr @H5P_init_g, align 1, !tbaa !16, !range !18, !noundef !19
  %19 = trunc nuw i8 %18 to i1
  %20 = trunc nuw i8 %17 to i1
  %21 = select i1 %19, i1 true, i1 %20
  br i1 %21, label %29, label %22, !prof !20

22:                                               ; preds = %16
  store i8 1, ptr @H5P_init_g, align 1, !tbaa !16
  %23 = tail call i32 @H5P__init_package() #15
  %24 = icmp slt i32 %23, 0
  br i1 %24, label %25, label %29, !prof !29

25:                                               ; preds = %22
  store i8 0, ptr @H5P_init_g, align 1, !tbaa !16
  %26 = load i64, ptr @H5E_FUNC_g, align 8, !tbaa !3
  %27 = load i64, ptr @H5E_CANTINIT_g, align 8, !tbaa !3
  %28 = tail call i32 (ptr, ptr, i32, i64, i64, ptr, ...) @H5E_printf_stack(ptr noundef nonnull @.str.2, ptr noundef nonnull @__func__.H5Pset_mdc_config, i32 noundef 2315, i64 noundef %26, i64 noundef %27, ptr noundef nonnull @.str.16) #15
  br label %.thread23

29:                                               ; preds = %16, %22
  %30 = call i32 @H5CX_push(ptr noundef nonnull %3) #15
  %31 = icmp slt i32 %30, 0
  br i1 %31, label %32, label %36, !prof !28

32:                                               ; preds = %29
  %33 = load i64, ptr @H5E_FUNC_g, align 8, !tbaa !3
  %34 = load i64, ptr @H5E_CANTSET_g, align 8, !tbaa !3
  %35 = call i32 (ptr, ptr, i32, i64, i64, ptr, ...) @H5E_printf_stack(ptr noundef nonnull @.str.2, ptr noundef nonnull @__func__.H5Pset_mdc_config, i32 noundef 2315, i64 noundef %33, i64 noundef %34, ptr noundef nonnull @.str.17) #15
  br label %.thread23

36:                                               ; preds = %29
  %37 = call i32 @H5E_clear_stack() #15
  %38 = load i64, ptr @H5P_CLS_FILE_ACCESS_ID_g, align 8, !tbaa !3
  %39 = call ptr @H5P_object_verify(i64 noundef %0, i64 noundef %38, i1 noundef zeroext false) #15
  %40 = icmp eq ptr %39, null
  br i1 %40, label %41, label %45, !prof !30

41:                                               ; preds = %36
  %42 = load i64, ptr @H5E_ID_g, align 8, !tbaa !3
  %43 = load i64, ptr @H5E_BADID_g, align 8, !tbaa !3
  %44 = call i32 (ptr, ptr, i32, i64, i64, ptr, ...) @H5E_printf_stack(ptr noundef nonnull @.str.2, ptr noundef nonnull @__func__.H5Pset_mdc_config, i32 noundef 2319, i64 noundef %42, i64 noundef %43, ptr noundef nonnull @.str.19) #15
  br label %.thread29

45:                                               ; preds = %36
  %46 = call i32 @H5AC_validate_config(ptr noundef %1) #15
  %47 = icmp slt i32 %46, 0
  br i1 %47, label %48, label %52, !prof !30

48:                                               ; preds = %45
  %49 = load i64, ptr @H5E_ARGS_g, align 8, !tbaa !3
  %50 = load i64, ptr @H5E_BADVALUE_g, align 8, !tbaa !3
  %51 = call i32 (ptr, ptr, i32, i64, i64, ptr, ...) @H5E_printf_stack(ptr noundef nonnull @.str.2, ptr noundef nonnull @__func__.H5Pset_mdc_config, i32 noundef 2323, i64 noundef %49, i64 noundef %50, ptr noundef nonnull @.str.63) #15
  br label %.thread29

52:                                               ; preds = %45
  %53 = call i32 @H5P_set(ptr noundef nonnull %39, ptr noundef nonnull @.str.64, ptr noundef %1) #15
  %54 = icmp slt i32 %53, 0
  br i1 %54, label %55, label %60, !prof !30

55:                                               ; preds = %52
  %56 = load i64, ptr @H5E_PLIST_g, align 8, !tbaa !3
  %57 = load i64, ptr @H5E_CANTSET_g, align 8, !tbaa !3
  %58 = call i32 (ptr, ptr, i32, i64, i64, ptr, ...) @H5E_printf_stack(ptr noundef nonnull @.str.2, ptr noundef nonnull @__func__.H5Pset_mdc_config, i32 noundef 2332, i64 noundef %56, i64 noundef %57, ptr noundef nonnull @.str.65) #15
  br label %.thread29

.thread29:                                        ; preds = %55, %48, %41
  %59 = call i32 @H5CX_pop(i1 noundef zeroext true) #15
  br label %.thread23

60:                                               ; preds = %52
  %61 = call i32 @H5CX_pop(i1 noundef zeroext true) #15
  br label %63

.thread23:                                        ; preds = %32, %25, %12, %.thread29
  %62 = call i32 @H5E_dump_api_stack() #15
  br label %63

63:                                               ; preds = %60, %.thread23
  %.0131826 = phi i32 [ -1, %.thread23 ], [ 0, %60 ]
  call void @llvm.lifetime.end.p0(i64 480, ptr nonnull %3) #15
  ret i32 %.0131826
}